; Function Attrs: mustprogress nofree norecurse nosync nounwind willreturn memory(argmem: read) uwtable
define hidden range(i32 0, 3) i32 @av1_get_pred_context_comp_ref_p2(ptr nocapture noundef readonly %0) local_unnamed_addr #2 {
  %2 = getelementptr i8, ptr %0, i64 10637
  %.val = load i8, ptr %2, align 1
  %3 = getelementptr i8, ptr %0, i64 10638
  %.val1 = load i8, ptr %3, align 1
  %4 = icmp eq i8 %.val, %.val1
  %5 = icmp ult i8 %.val, %.val1
  %6 = select i1 %5, i32 0, i32 2
  %7 = select i1 %4, i32 1, i32 %6
  ret i32 %7
}